; Function Attrs: mustprogress nofree norecurse nosync nounwind willreturn memory(argmem: readwrite) uwtable
define void @_ZN6icu_7724WholeStringBreakIterator7setTextERKNS_13UnicodeStringE(ptr noundef nonnull writeonly align 8 captures(none) dereferenceable(36) initializes((32, 36)) %0, ptr noundef nonnull readonly align 8 captures(none) dereferenceable(64) %1) unnamed_addr #5 align 2 {
  %3 = getelementptr inbounds nuw i8, ptr %1, i64 8
  %4 = load i16, ptr %3, align 8, !tbaa !7
  %5 = icmp slt i16 %4, 0
  %6 = ashr i16 %4, 5
  %7 = sext i16 %6 to i32
  %8 = getelementptr inbounds nuw i8, ptr %1, i64 12
  %9 = load i32, ptr %8, align 4
  %10 = select i1 %5, i32 %9, i32 %7
  %11 = getelementptr inbounds nuw i8, ptr %0, i64 32
  store i32 %10, ptr %11, align 8, !tbaa !8
  ret void
}